target datalayout = "e-m:e-p270:32:32-p271:32:32-p272:64:64-i64:64-i128:128-f80:128-n8:16:32:64-S128"
target triple = "x86_64-pc-linux-gnu"

%struct.FLAC__MD5Context = type { [16 x i32], [4 x i32], [2 x i32], %union.FLAC__multibyte, i64 }
%union.FLAC__multibyte = type { ptr }

; Function Attrs: alwaysinline nounwind
define internal ptr @memcpy.inline(ptr noalias nonnull %0, ptr noalias nonnull %1, i64 %2) #2 {
  %4 = alloca ptr, align 8
  %5 = alloca ptr, align 8
  %6 = alloca i64, align 8
  store ptr %0, ptr %4, align 8, !tbaa !3
  store ptr %1, ptr %5, align 8, !tbaa !3
  store i64 %2, ptr %6, align 8, !tbaa !15
  %7 = load ptr, ptr %4, align 8, !tbaa !3
  %8 = load ptr, ptr %5, align 8, !tbaa !3
  %9 = load i64, ptr %6, align 8, !tbaa !15
  %10 = load ptr, ptr %4, align 8, !tbaa !3
  %11 = call i64 @llvm.objectsize.i64.p0(ptr %10, i1 false, i1 true, i1 false)
  %12 = call ptr @__memcpy_chk(ptr noundef %7, ptr noundef %8, i64 noundef %9, i64 noundef %11) #8
  ret ptr %12
}

; Function Attrs: alwaysinline nounwind
define internal ptr @memset.inline(ptr nonnull %0, i32 %1, i64 %2) #2 {
  %4 = alloca ptr, align 8
  %5 = alloca i32, align 4
  %6 = alloca i64, align 8
  store ptr %0, ptr %4, align 8, !tbaa !3
  store i32 %1, ptr %5, align 4, !tbaa !7
  store i64 %2, ptr %6, align 8, !tbaa !15
  %7 = load ptr, ptr %4, align 8, !tbaa !3
  %8 = load i32, ptr %5, align 4, !tbaa !7
  %9 = load i64, ptr %6, align 8, !tbaa !15
  %10 = load ptr, ptr %4, align 8, !tbaa !3
  %11 = call i64 @llvm.objectsize.i64.p0(ptr %10, i1 false, i1 true, i1 false)
  %12 = call ptr @__memset_chk(ptr noundef %7, i32 noundef %8, i64 noundef %9, i64 noundef %11) #8
  ret ptr %12
}

; Function Attrs: nounwind sspstrong uwtable
define hidden void @FLAC__MD5Final(ptr noundef %0, ptr noundef %1) #0 {
  %3 = alloca ptr, align 8
  %4 = alloca ptr, align 8
  %5 = alloca i32, align 4
  %6 = alloca ptr, align 8
  store ptr %0, ptr %3, align 8, !tbaa !13
  store ptr %1, ptr %4, align 8, !tbaa !3
  call void @llvm.lifetime.start.p0(i64 4, ptr %5) #8
  %7 = load ptr, ptr %4, align 8, !tbaa !3
  %8 = getelementptr inbounds nuw %struct.FLAC__MD5Context, ptr %7, i32 0, i32 2
  %9 = getelementptr inbounds [2 x i32], ptr %8, i64 0, i64 0
  %10 = load i32, ptr %9, align 8, !tbaa !7
  %11 = and i32 %10, 63
  store i32 %11, ptr %5, align 4, !tbaa !7
  call void @llvm.lifetime.start.p0(i64 8, ptr %6) #8
  %12 = load ptr, ptr %4, align 8, !tbaa !3
  %13 = getelementptr inbounds nuw %struct.FLAC__MD5Context, ptr %12, i32 0, i32 0
  %14 = getelementptr inbounds [16 x i32], ptr %13, i64 0, i64 0
  %15 = load i32, ptr %5, align 4, !tbaa !7
  %16 = sext i32 %15 to i64
  %17 = getelementptr inbounds i8, ptr %14, i64 %16
  store ptr %17, ptr %6, align 8, !tbaa !13
  %18 = load ptr, ptr %6, align 8, !tbaa !13
  %19 = getelementptr inbounds nuw i8, ptr %18, i32 1
  store ptr %19, ptr %6, align 8, !tbaa !13
  store i8 -128, ptr %18, align 1, !tbaa !9
  %20 = load i32, ptr %5, align 4, !tbaa !7
  %21 = sub nsw i32 55, %20
  store i32 %21, ptr %5, align 4, !tbaa !7
  %22 = load i32, ptr %5, align 4, !tbaa !7
  %23 = icmp slt i32 %22, 0
  br i1 %23, label %24, label %39

24:                                               ; preds = %2
  %25 = load ptr, ptr %6, align 8, !tbaa !13
  %26 = load i32, ptr %5, align 4, !tbaa !7
  %27 = add nsw i32 %26, 8
  %28 = sext i32 %27 to i64
  %29 = call ptr @memset.inline(ptr noundef %25, i32 noundef 0, i64 noundef %28) #8
  %30 = load ptr, ptr %4, align 8, !tbaa !3
  %31 = getelementptr inbounds nuw %struct.FLAC__MD5Context, ptr %30, i32 0, i32 1
  %32 = getelementptr inbounds [4 x i32], ptr %31, i64 0, i64 0
  %33 = load ptr, ptr %4, align 8, !tbaa !3
  %34 = getelementptr inbounds nuw %struct.FLAC__MD5Context, ptr %33, i32 0, i32 0
  %35 = getelementptr inbounds [16 x i32], ptr %34, i64 0, i64 0
  call void @FLAC__MD5Transform(ptr noundef %32, ptr noundef %35)
  %36 = load ptr, ptr %4, align 8, !tbaa !3
  %37 = getelementptr inbounds nuw %struct.FLAC__MD5Context, ptr %36, i32 0, i32 0
  %38 = getelementptr inbounds [16 x i32], ptr %37, i64 0, i64 0
  store ptr %38, ptr %6, align 8, !tbaa !13
  store i32 56, ptr %5, align 4, !tbaa !7
  br label %39

39:                                               ; preds = %24, %2
  %40 = load ptr, ptr %6, align 8, !tbaa !13
  %41 = load i32, ptr %5, align 4, !tbaa !7
  %42 = sext i32 %41 to i64
  %43 = call ptr @memset.inline(ptr noundef %40, i32 noundef 0, i64 noundef %42) #8
  %44 = load ptr, ptr %4, align 8, !tbaa !3
  %45 = getelementptr inbounds nuw %struct.FLAC__MD5Context, ptr %44, i32 0, i32 2
  %46 = getelementptr inbounds [2 x i32], ptr %45, i64 0, i64 0
  %47 = load i32, ptr %46, align 8, !tbaa !7
  %48 = shl i32 %47, 3
  %49 = load ptr, ptr %4, align 8, !tbaa !3
  %50 = getelementptr inbounds nuw %struct.FLAC__MD5Context, ptr %49, i32 0, i32 0
  %51 = getelementptr inbounds [16 x i32], ptr %50, i64 0, i64 14
  store i32 %48, ptr %51, align 8, !tbaa !7
  %52 = load ptr, ptr %4, align 8, !tbaa !3
  %53 = getelementptr inbounds nuw %struct.FLAC__MD5Context, ptr %52, i32 0, i32 2
  %54 = getelementptr inbounds [2 x i32], ptr %53, i64 0, i64 1
  %55 = load i32, ptr %54, align 4, !tbaa !7
  %56 = shl i32 %55, 3
  %57 = load ptr, ptr %4, align 8, !tbaa !3
  %58 = getelementptr inbounds nuw %struct.FLAC__MD5Context, ptr %57, i32 0, i32 2
  %59 = getelementptr inbounds [2 x i32], ptr %58, i64 0, i64 0
  %60 = load i32, ptr %59, align 8, !tbaa !7
  %61 = lshr i32 %60, 29
  %62 = or i32 %56, %61
  %63 = load ptr, ptr %4, align 8, !tbaa !3
  %64 = getelementptr inbounds nuw %struct.FLAC__MD5Context, ptr %63, i32 0, i32 0
  %65 = getelementptr inbounds [16 x i32], ptr %64, i64 0, i64 15
  store i32 %62, ptr %65, align 4, !tbaa !7
  %66 = load ptr, ptr %4, align 8, !tbaa !3
  %67 = getelementptr inbounds nuw %struct.FLAC__MD5Context, ptr %66, i32 0, i32 1
  %68 = getelementptr inbounds [4 x i32], ptr %67, i64 0, i64 0
  %69 = load ptr, ptr %4, align 8, !tbaa !3
  %70 = getelementptr inbounds nuw %struct.FLAC__MD5Context, ptr %69, i32 0, i32 0
  %71 = getelementptr inbounds [16 x i32], ptr %70, i64 0, i64 0
  call void @FLAC__MD5Transform(ptr noundef %68, ptr noundef %71)
  %72 = load ptr, ptr %3, align 8, !tbaa !13
  %73 = load ptr, ptr %4, align 8, !tbaa !3
  %74 = getelementptr inbounds nuw %struct.FLAC__MD5Context, ptr %73, i32 0, i32 1
  %75 = getelementptr inbounds [4 x i32], ptr %74, i64 0, i64 0
  %76 = call ptr @memcpy.inline(ptr noundef %72, ptr noundef %75, i64 noundef 16) #8
  %77 = load ptr, ptr %4, align 8, !tbaa !3
  %78 = getelementptr inbounds nuw %struct.FLAC__MD5Context, ptr %77, i32 0, i32 3
  %79 = load ptr, ptr %78, align 8, !tbaa !9
  %80 = icmp ne ptr null, %79
  br i1 %80, label %81, label %89

81:                                               ; preds = %39
  %82 = load ptr, ptr %4, align 8, !tbaa !3
  %83 = getelementptr inbounds nuw %struct.FLAC__MD5Context, ptr %82, i32 0, i32 3
  %84 = load ptr, ptr %83, align 8, !tbaa !9
  call void @free(ptr noundef %84) #8
  %85 = load ptr, ptr %4, align 8, !tbaa !3
  %86 = getelementptr inbounds nuw %struct.FLAC__MD5Context, ptr %85, i32 0, i32 3
  store ptr null, ptr %86, align 8, !tbaa !9
  %87 = load ptr, ptr %4, align 8, !tbaa !3
  %88 = getelementptr inbounds nuw %struct.FLAC__MD5Context, ptr %87, i32 0, i32 4
  store i64 0, ptr %88, align 8, !tbaa !10
  br label %89

89:                                               ; preds = %81, %39
  %90 = load ptr, ptr %4, align 8, !tbaa !3
  %91 = call ptr @memset.inline(ptr noundef %90, i32 noundef 0, i64 noundef 104) #8
  call void @llvm.lifetime.end.p0(i64 8, ptr %6) #8
  call void @llvm.lifetime.end.p0(i64 4, ptr %5) #8
  ret void
}