; Function Attrs: nounwind sspstrong uwtable
define hidden void @FLAC__MD5Final(ptr noundef %0, ptr noundef %1) local_unnamed_addr #1 {
  %3 = getelementptr inbounds nuw i8, ptr %1, i64 80
  %4 = load i32, ptr %3, align 8, !tbaa !3
  %5 = and i32 %4, 63
  %6 = zext nneg i32 %5 to i64
  %7 = getelementptr inbounds nuw i8, ptr %1, i64 %6
  %8 = getelementptr inbounds nuw i8, ptr %7, i64 1
  store i8 -128, ptr %7, align 1, !tbaa !7
  %9 = sub nuw nsw i32 55, %5
  %10 = icmp samesign ugt i32 %5, 55
  br i1 %10, label %11, label %15

11:                                               ; preds = %2
  %12 = xor i32 %5, 63
  %13 = zext nneg i32 %12 to i64
  tail call void @llvm.memset.p0.i64(ptr noundef nonnull align 1 %8, i8 noundef 0, i64 noundef range(i64 0, 105) %13, i1 noundef false) #9
  %14 = getelementptr inbounds nuw i8, ptr %1, i64 64
  tail call fastcc void @FLAC__MD5Transform(ptr noundef nonnull %14, ptr noundef nonnull %1)
  br label %15

15:                                               ; preds = %11, %2
  %.026 = phi i32 [ 56, %11 ], [ %9, %2 ]
  %.0 = phi ptr [ %1, %11 ], [ %8, %2 ]
  %16 = zext nneg i32 %.026 to i64
  tail call void @llvm.memset.p0.i64(ptr noundef nonnull align 1 %.0, i8 noundef 0, i64 noundef range(i64 0, 105) %16, i1 noundef false) #9
  %17 = load i32, ptr %3, align 8, !tbaa !3
  %18 = shl i32 %17, 3
  %19 = getelementptr inbounds nuw i8, ptr %1, i64 56
  store i32 %18, ptr %19, align 8, !tbaa !3
  %20 = getelementptr inbounds nuw i8, ptr %1, i64 84
  %21 = load i32, ptr %20, align 4, !tbaa !3
  %22 = tail call i32 @llvm.fshl.i32(i32 %21, i32 %17, i32 3)
  %23 = getelementptr inbounds nuw i8, ptr %1, i64 60
  store i32 %22, ptr %23, align 4, !tbaa !3
  %24 = getelementptr inbounds nuw i8, ptr %1, i64 64
  tail call fastcc void @FLAC__MD5Transform(ptr noundef nonnull %24, ptr noundef nonnull %1)
  tail call void @llvm.memcpy.p0.p0.i64(ptr noundef nonnull align 1 dereferenceable(16) %0, ptr noundef nonnull align 1 dereferenceable(16) %24, i64 noundef 16, i1 noundef false) #9
  %25 = getelementptr inbounds nuw i8, ptr %1, i64 88
  %26 = load ptr, ptr %25, align 8, !tbaa !7
  %.not = icmp eq ptr %26, null
  br i1 %.not, label %28, label %27

27:                                               ; preds = %15
  tail call void @free(ptr noundef nonnull %26) #9
  br label %28

28:                                               ; preds = %27, %15
  tail call void @llvm.memset.p0.i64(ptr noundef nonnull align 1 dereferenceable(104) %1, i8 noundef 0, i64 noundef 104, i1 noundef false) #9
  ret void
}